target datalayout = "e-m:e-p270:32:32-p271:32:32-p272:64:64-i64:64-i128:128-f80:128-n8:16:32:64-S128"
target triple = "x86_64-unknown-linux-gnu"

%class.mpf = type { i32, %class.mpz, i64 }
%class.mpz = type { i32, i8, ptr }
%class.mpf_manager = type { %class.mpq_manager, ptr, %"class.mpf_manager::powers2" }
%class.mpq_manager = type { %class.mpz_manager, %class.mpz, %class.mpz, %class.mpz, %class.mpz, %class.mpq, %class.mpq }
%class.mpz_manager = type { %class.small_object_allocator, %"class.std::recursive_mutex", %class.mpn_manager, i32, %class.mpz, %class.mpz }
%class.small_object_allocator = type { [32 x ptr], [32 x ptr], i64 }
%"class.std::recursive_mutex" = type { %"class.std::__recursive_mutex_base" }
%"class.std::__recursive_mutex_base" = type { %union.pthread_mutex_t }
%union.pthread_mutex_t = type { %struct.__pthread_mutex_s }
%struct.__pthread_mutex_s = type { i32, i32, i32, i32, i32, i16, i16, %struct.__pthread_internal_list }
%struct.__pthread_internal_list = type { ptr, ptr }
%class.mpn_manager = type { i8 }
%class.mpq = type { %class.mpz, %class.mpz }
%"class.mpf_manager::powers2" = type { ptr, %class.u_map, %class.u_map, %class.u_map, %class.u_map }
%class.u_map = type { %class.map }
%class.map = type { %class.table2map }
%class.table2map = type { %class.core_hashtable }
%class.core_hashtable = type <{ ptr, i32, i32, i32, [4 x i8] }>

; Function Attrs: mustprogress uwtable
define linkonce_odr hidden void @_ZN11mpz_managerILb0EE7set_i64ER3mpzl(ptr noundef nonnull align 8 dereferenceable(600) %this, ptr noundef nonnull align 8 dereferenceable(16) %c, i64 noundef %v) #4 comdat align 2 {
entry:
  %this.addr = alloca ptr, align 8
  %c.addr = alloca ptr, align 8
  %v.addr = alloca i64, align 8
  store ptr %this, ptr %this.addr, align 8
  store ptr %c, ptr %c.addr, align 8
  store i64 %v, ptr %v.addr, align 8
  %this1 = load ptr, ptr %this.addr, align 8
  %0 = load i64, ptr %v.addr, align 8
  %cmp = icmp sge i64 %0, -2147483648
  br i1 %cmp, label %land.lhs.true, label %if.else

land.lhs.true:                                    ; preds = %entry
  %1 = load i64, ptr %v.addr, align 8
  %cmp2 = icmp sle i64 %1, 2147483647
  br i1 %cmp2, label %if.then, label %if.else

if.then:                                          ; preds = %land.lhs.true
  %2 = load i64, ptr %v.addr, align 8
  %conv = trunc i64 %2 to i32
  %3 = load ptr, ptr %c.addr, align 8
  %m_val = getelementptr inbounds %class.mpz, ptr %3, i32 0, i32 0
  store i32 %conv, ptr %m_val, align 8
  %4 = load ptr, ptr %c.addr, align 8
  %m_kind = getelementptr inbounds %class.mpz, ptr %4, i32 0, i32 1
  %bf.load = load i8, ptr %m_kind, align 4
  %bf.clear = and i8 %bf.load, -2
  %bf.set = or i8 %bf.clear, 0
  store i8 %bf.set, ptr %m_kind, align 4
  br label %if.end

if.else:                                          ; preds = %land.lhs.true, %entry
  %5 = load ptr, ptr %c.addr, align 8
  %6 = load i64, ptr %v.addr, align 8
  call void @_ZN11mpz_managerILb0EE11set_big_i64ER3mpzl(ptr noundef nonnull align 8 dereferenceable(600) %this1, ptr noundef nonnull align 8 dereferenceable(16) %5, i64 noundef %6)
  br label %if.end

if.end:                                           ; preds = %if.else, %if.then
  ret void
}

; Function Attrs: mustprogress uwtable
define linkonce_odr hidden void @_ZN11mpz_managerILb0EE3setER3mpzl(ptr noundef nonnull align 8 dereferenceable(600) %this, ptr noundef nonnull align 8 dereferenceable(16) %a, i64 noundef %val) #4 comdat align 2 {
entry:
  %this.addr = alloca ptr, align 8
  %a.addr = alloca ptr, align 8
  %val.addr = alloca i64, align 8
  store ptr %this, ptr %this.addr, align 8
  store ptr %a, ptr %a.addr, align 8
  store i64 %val, ptr %val.addr, align 8
  %this1 = load ptr, ptr %this.addr, align 8
  %0 = load ptr, ptr %a.addr, align 8
  %1 = load i64, ptr %val.addr, align 8
  call void @_ZN11mpz_managerILb0EE7set_i64ER3mpzl(ptr noundef nonnull align 8 dereferenceable(600) %this1, ptr noundef nonnull align 8 dereferenceable(16) %0, i64 noundef %1)
  ret void
}

; Function Attrs: mustprogress nounwind uwtable
define linkonce_odr hidden void @_ZN11mpz_managerILb0EE3setER3mpzi(ptr noundef nonnull align 8 dereferenceable(600) %this, ptr noundef nonnull align 8 dereferenceable(16) %a, i32 noundef %val) #5 comdat align 2 {
entry:
  %this.addr = alloca ptr, align 8
  %a.addr = alloca ptr, align 8
  %val.addr = alloca i32, align 4
  store ptr %this, ptr %this.addr, align 8
  store ptr %a, ptr %a.addr, align 8
  store i32 %val, ptr %val.addr, align 4
  %0 = load i32, ptr %val.addr, align 4
  %1 = load ptr, ptr %a.addr, align 8
  %m_val = getelementptr inbounds %class.mpz, ptr %1, i32 0, i32 0
  store i32 %0, ptr %m_val, align 8
  %2 = load ptr, ptr %a.addr, align 8
  %m_kind = getelementptr inbounds %class.mpz, ptr %2, i32 0, i32 1
  %bf.load = load i8, ptr %m_kind, align 4
  %bf.clear = and i8 %bf.load, -2
  %bf.set = or i8 %bf.clear, 0
  store i8 %bf.set, ptr %m_kind, align 4
  ret void
}

; Function Attrs: mustprogress uwtable
define linkonce_odr hidden void @_ZN11mpz_managerILb0EE3setER3mpzj(ptr noundef nonnull align 8 dereferenceable(600) %this, ptr noundef nonnull align 8 dereferenceable(16) %a, i32 noundef %val) #4 comdat align 2 {
entry:
  %this.addr = alloca ptr, align 8
  %a.addr = alloca ptr, align 8
  %val.addr = alloca i32, align 4
  store ptr %this, ptr %this.addr, align 8
  store ptr %a, ptr %a.addr, align 8
  store i32 %val, ptr %val.addr, align 4
  %this1 = load ptr, ptr %this.addr, align 8
  %0 = load i32, ptr %val.addr, align 4
  %cmp = icmp ule i32 %0, 2147483647
  br i1 %cmp, label %if.then, label %if.else

if.then:                                          ; preds = %entry
  %1 = load ptr, ptr %a.addr, align 8
  %2 = load i32, ptr %val.addr, align 4
  call void @_ZN11mpz_managerILb0EE3setER3mpzi(ptr noundef nonnull align 8 dereferenceable(600) %this1, ptr noundef nonnull align 8 dereferenceable(16) %1, i32 noundef %2)
  br label %if.end

if.else:                                          ; preds = %entry
  %3 = load ptr, ptr %a.addr, align 8
  %4 = load i32, ptr %val.addr, align 4
  %conv = zext i32 %4 to i64
  call void @_ZN11mpz_managerILb0EE3setER3mpzl(ptr noundef nonnull align 8 dereferenceable(600) %this1, ptr noundef nonnull align 8 dereferenceable(16) %3, i64 noundef %conv)
  br label %if.end

if.end:                                           ; preds = %if.else, %if.then
  ret void
}

; Function Attrs: mustprogress uwtable
define hidden noundef i64 @_ZN11mpf_manager10mk_top_expEj(ptr noundef nonnull align 8 dereferenceable(840) %this, i32 noundef %ebits) #4 align 2 {
entry:
  %this.addr = alloca ptr, align 8
  %ebits.addr = alloca i32, align 4
  store ptr %this, ptr %this.addr, align 8
  store i32 %ebits, ptr %ebits.addr, align 4
  %this1 = load ptr, ptr %this.addr, align 8
  %m_mpz_manager = getelementptr inbounds %class.mpf_manager, ptr %this1, i32 0, i32 1
  %0 = load ptr, ptr %m_mpz_manager, align 8
  %m_powers2 = getelementptr inbounds %class.mpf_manager, ptr %this1, i32 0, i32 2
  %1 = load i32, ptr %ebits.addr, align 4
  %sub = sub i32 %1, 1
  %call = call noundef nonnull align 8 dereferenceable(16) ptr @_ZN11mpf_manager7powers2clEjb(ptr noundef nonnull align 8 dereferenceable(104) %m_powers2, i32 noundef %sub, i1 noundef zeroext false)
  %call2 = call noundef i64 @_ZNK11mpz_managerILb0EE9get_int64ERK3mpz(ptr noundef nonnull align 8 dereferenceable(600) %0, ptr noundef nonnull align 8 dereferenceable(16) %call)
  ret i64 %call2
}

; Function Attrs: mustprogress uwtable
define hidden noundef i64 @_ZN11mpf_manager10mk_bot_expEj(ptr noundef nonnull align 8 dereferenceable(840) %this, i32 noundef %ebits) #4 align 2 {
entry:
  %this.addr = alloca ptr, align 8
  %ebits.addr = alloca i32, align 4
  store ptr %this, ptr %this.addr, align 8
  store i32 %ebits, ptr %ebits.addr, align 4
  %this1 = load ptr, ptr %this.addr, align 8
  %m_mpz_manager = getelementptr inbounds %class.mpf_manager, ptr %this1, i32 0, i32 1
  %0 = load ptr, ptr %m_mpz_manager, align 8
  %m_powers2 = getelementptr inbounds %class.mpf_manager, ptr %this1, i32 0, i32 2
  %1 = load i32, ptr %ebits.addr, align 4
  %sub = sub i32 %1, 1
  %call = call noundef nonnull align 8 dereferenceable(16) ptr @_ZN11mpf_manager7powers22m1Ejb(ptr noundef nonnull align 8 dereferenceable(104) %m_powers2, i32 noundef %sub, i1 noundef zeroext true)
  %call2 = call noundef i64 @_ZNK11mpz_managerILb0EE9get_int64ERK3mpz(ptr noundef nonnull align 8 dereferenceable(600) %0, ptr noundef nonnull align 8 dereferenceable(16) %call)
  ret i64 %call2
}

; Function Attrs: mustprogress uwtable
define hidden void @_ZN11mpf_manager3setER3mpfjjf(ptr noundef nonnull align 8 dereferenceable(840) %this, ptr noundef nonnull align 8 dereferenceable(32) %o, i32 noundef %ebits, i32 noundef %sbits, float noundef %value) #4 align 2 {
entry:
  %this.addr = alloca ptr, align 8
  %o.addr = alloca ptr, align 8
  %ebits.addr = alloca i32, align 4
  %sbits.addr = alloca i32, align 4
  %value.addr = alloca float, align 4
  %raw = alloca i32, align 4
  %sign = alloca i8, align 1
  %e = alloca i32, align 4
  %s = alloca i32, align 4
  store ptr %this, ptr %this.addr, align 8
  store ptr %o, ptr %o.addr, align 8
  store i32 %ebits, ptr %ebits.addr, align 4
  store i32 %sbits, ptr %sbits.addr, align 4
  store float %value, ptr %value.addr, align 4
  %this1 = load ptr, ptr %this.addr, align 8
  call void @llvm.memcpy.p0.p0.i64(ptr align 4 %raw, ptr align 4 %value.addr, i64 4, i1 false)
  %0 = load i32, ptr %raw, align 4
  %shr = lshr i32 %0, 31
  %cmp = icmp ne i32 %shr, 0
  %frombool = zext i1 %cmp to i8
  store i8 %frombool, ptr %sign, align 1
  %1 = load i32, ptr %raw, align 4
  %and = and i32 %1, 2139095040
  %shr2 = lshr i32 %and, 23
  %sub = sub i32 %shr2, 127
  store i32 %sub, ptr %e, align 4
  %2 = load i32, ptr %raw, align 4
  %and3 = and i32 %2, 8388607
  store i32 %and3, ptr %s, align 4
  %3 = load i32, ptr %ebits.addr, align 4
  %4 = load ptr, ptr %o.addr, align 8
  %bf.load = load i32, ptr %4, align 8
  %bf.value = and i32 %3, 32767
  %bf.clear = and i32 %bf.load, -32768
  %bf.set = or i32 %bf.clear, %bf.value
  store i32 %bf.set, ptr %4, align 8
  %5 = load i32, ptr %sbits.addr, align 4
  %6 = load ptr, ptr %o.addr, align 8
  %bf.load4 = load i32, ptr %6, align 8
  %bf.value5 = and i32 %5, 65535
  %bf.shl = shl i32 %bf.value5, 15
  %bf.clear6 = and i32 %bf.load4, -2147450881
  %bf.set7 = or i32 %bf.clear6, %bf.shl
  store i32 %bf.set7, ptr %6, align 8
  %7 = load i8, ptr %sign, align 1
  %tobool = trunc i8 %7 to i1
  %conv = zext i1 %tobool to i32
  %8 = load ptr, ptr %o.addr, align 8
  %bf.load8 = load i32, ptr %8, align 8
  %bf.value9 = and i32 %conv, 1
  %bf.shl10 = shl i32 %bf.value9, 31
  %bf.clear11 = and i32 %bf.load8, 2147483647
  %bf.set12 = or i32 %bf.clear11, %bf.shl10
  store i32 %bf.set12, ptr %8, align 8
  %9 = load i32, ptr %e, align 4
  %conv13 = sext i32 %9 to i64
  %10 = load i32, ptr %ebits.addr, align 4
  %sub14 = sub i32 %10, 1
  %sh_prom = zext i32 %sub14 to i64
  %shl = shl i64 1, %sh_prom
  %sub15 = sub nsw i64 %shl, 1
  %sub16 = sub nsw i64 0, %sub15
  %cmp17 = icmp sle i64 %conv13, %sub16
  br i1 %cmp17, label %if.then, label %if.else

if.then:                                          ; preds = %entry
  %11 = load i32, ptr %ebits.addr, align 4
  %call = call noundef i64 @_ZN11mpf_manager10mk_bot_expEj(ptr noundef nonnull align 8 dereferenceable(840) %this1, i32 noundef %11)
  %12 = load ptr, ptr %o.addr, align 8
  %exponent = getelementptr inbounds %class.mpf, ptr %12, i32 0, i32 2
  store i64 %call, ptr %exponent, align 8
  br label %if.end29

if.else:                                          ; preds = %entry
  %13 = load i32, ptr %e, align 4
  %conv18 = sext i32 %13 to i64
  %14 = load i32, ptr %ebits.addr, align 4
  %sub19 = sub i32 %14, 1
  %sh_prom20 = zext i32 %sub19 to i64
  %shl21 = shl i64 1, %sh_prom20
  %cmp22 = icmp sge i64 %conv18, %shl21
  br i1 %cmp22, label %if.then23, label %if.else26

if.then23:                                        ; preds = %if.else
  %15 = load i32, ptr %ebits.addr, align 4
  %call24 = call noundef i64 @_ZN11mpf_manager10mk_top_expEj(ptr noundef nonnull align 8 dereferenceable(840) %this1, i32 noundef %15)
  %16 = load ptr, ptr %o.addr, align 8
  %exponent25 = getelementptr inbounds %class.mpf, ptr %16, i32 0, i32 2
  store i64 %call24, ptr %exponent25, align 8
  br label %if.end

if.else26:                                        ; preds = %if.else
  %17 = load i32, ptr %e, align 4
  %conv27 = sext i32 %17 to i64
  %18 = load ptr, ptr %o.addr, align 8
  %exponent28 = getelementptr inbounds %class.mpf, ptr %18, i32 0, i32 2
  store i64 %conv27, ptr %exponent28, align 8
  br label %if.end

if.end:                                           ; preds = %if.else26, %if.then23
  br label %if.end29

if.end29:                                         ; preds = %if.end, %if.then
  %m_mpz_manager = getelementptr inbounds %class.mpf_manager, ptr %this1, i32 0, i32 1
  %19 = load ptr, ptr %m_mpz_manager, align 8
  %20 = load ptr, ptr %o.addr, align 8
  %significand = getelementptr inbounds %class.mpf, ptr %20, i32 0, i32 1
  %21 = load i32, ptr %s, align 4
  call void @_ZN11mpz_managerILb0EE3setER3mpzj(ptr noundef nonnull align 8 dereferenceable(600) %19, ptr noundef nonnull align 8 dereferenceable(16) %significand, i32 noundef %21)
  %22 = load i32, ptr %sbits.addr, align 4
  %cmp30 = icmp ult i32 %22, 24
  br i1 %cmp30, label %if.then31, label %if.else35

if.then31:                                        ; preds = %if.end29
  %m_mpz_manager32 = getelementptr inbounds %class.mpf_manager, ptr %this1, i32 0, i32 1
  %23 = load ptr, ptr %m_mpz_manager32, align 8
  %24 = load ptr, ptr %o.addr, align 8
  %significand33 = getelementptr inbounds %class.mpf, ptr %24, i32 0, i32 1
  %25 = load i32, ptr %sbits.addr, align 4
  %sub34 = sub i32 24, %25
  call void @_ZN11mpz_managerILb0EE13machine_div2kER3mpzj(ptr noundef nonnull align 8 dereferenceable(600) %23, ptr noundef nonnull align 8 dereferenceable(16) %significand33, i32 noundef %sub34)
  br label %if.end42

if.else35:                                        ; preds = %if.end29
  %26 = load i32, ptr %sbits.addr, align 4
  %cmp36 = icmp ugt i32 %26, 24
  br i1 %cmp36, label %if.then37, label %if.end41

if.then37:                                        ; preds = %if.else35
  %m_mpz_manager38 = getelementptr inbounds %class.mpf_manager, ptr %this1, i32 0, i32 1
  %27 = load ptr, ptr %m_mpz_manager38, align 8
  %28 = load ptr, ptr %o.addr, align 8
  %significand39 = getelementptr inbounds %class.mpf, ptr %28, i32 0, i32 1
  %29 = load i32, ptr %sbits.addr, align 4
  %sub40 = sub i32 %29, 24
  call void @_ZN11mpz_managerILb0EE5mul2kER3mpzj(ptr noundef nonnull align 8 dereferenceable(600) %27, ptr noundef nonnull align 8 dereferenceable(16) %significand39, i32 noundef %sub40)
  br label %if.end41

if.end41:                                         ; preds = %if.then37, %if.else35
  br label %if.end42

if.end42:                                         ; preds = %if.end41, %if.then31
  ret void
}