; Function Attrs: mustprogress uwtable
define hidden void @_ZN11mpf_manager3setER3mpfjjf(ptr noundef nonnull align 8 dereferenceable(840) %this, ptr noundef nonnull align 8 dereferenceable(32) %o, i32 noundef %ebits, i32 noundef %sbits, float noundef %value) local_unnamed_addr #5 align 2 {
entry:
  %0 = bitcast float %value to i32
  %and = lshr i32 %0, 23
  %shr2 = and i32 %and, 255
  %sub = add nsw i32 %shr2, -127
  %and3 = and i32 %0, 8388607
  %bf.value = and i32 %ebits, 32767
  %bf.value5 = shl i32 %sbits, 15
  %.lobit = and i32 %0, -2147483648
  %bf.value5.masked = and i32 %bf.value5, 2147450880
  %bf.clear11 = or disjoint i32 %bf.value5.masked, %bf.value
  %bf.set12 = or disjoint i32 %bf.clear11, %.lobit
  store i32 %bf.set12, ptr %o, align 8
  %conv13 = sext i32 %sub to i64
  %sub14 = add i32 %ebits, -1
  %sh_prom = zext nneg i32 %sub14 to i64
  %shl = shl nuw i64 1, %sh_prom
  %sub16 = sub nsw i64 1, %shl
  %cmp17.not = icmp slt i64 %sub16, %conv13
  br i1 %cmp17.not, label %if.else, label %if.then

if.then:                                          ; preds = %entry
  %m_mpz_manager.i = getelementptr inbounds i8, ptr %this, i64 728
  %1 = load ptr, ptr %m_mpz_manager.i, align 8
  %m_powers2.i = getelementptr inbounds i8, ptr %this, i64 736
  %call.i = tail call noundef nonnull align 8 dereferenceable(16) ptr @_ZN11mpf_manager7powers22m1Ejb(ptr noundef nonnull align 8 dereferenceable(104) %m_powers2.i, i32 noundef %sub14, i1 noundef zeroext true)
  %call2.i = tail call noundef i64 @_ZNK11mpz_managerILb0EE9get_int64ERK3mpz(ptr noundef nonnull align 8 dereferenceable(600) %1, ptr noundef nonnull align 8 dereferenceable(16) %call.i)
  br label %if.end29

if.else:                                          ; preds = %entry
  %cmp22.not = icmp sgt i64 %shl, %conv13
  br i1 %cmp22.not, label %if.end29, label %if.then23

if.then23:                                        ; preds = %if.else
  %m_mpz_manager.i21 = getelementptr inbounds i8, ptr %this, i64 728
  %2 = load ptr, ptr %m_mpz_manager.i21, align 8
  %m_powers2.i22 = getelementptr inbounds i8, ptr %this, i64 736
  %call.i24 = tail call noundef nonnull align 8 dereferenceable(16) ptr @_ZN11mpf_manager7powers2clEjb(ptr noundef nonnull align 8 dereferenceable(104) %m_powers2.i22, i32 noundef %sub14, i1 noundef zeroext false)
  %call2.i25 = tail call noundef i64 @_ZNK11mpz_managerILb0EE9get_int64ERK3mpz(ptr noundef nonnull align 8 dereferenceable(600) %2, ptr noundef nonnull align 8 dereferenceable(16) %call.i24)
  br label %if.end29

if.end29:                                         ; preds = %if.else, %if.then23, %if.then
  %call2.i25.sink = phi i64 [ %call2.i25, %if.then23 ], [ %call2.i, %if.then ], [ %conv13, %if.else ]
  %exponent25 = getelementptr inbounds i8, ptr %o, i64 24
  store i64 %call2.i25.sink, ptr %exponent25, align 8
  %m_mpz_manager = getelementptr inbounds i8, ptr %this, i64 728
  %significand = getelementptr inbounds i8, ptr %o, i64 8
  store i32 %and3, ptr %significand, align 8
  %m_kind.i.i = getelementptr inbounds i8, ptr %o, i64 12
  %bf.load.i.i = load i8, ptr %m_kind.i.i, align 4
  %bf.clear.i.i = and i8 %bf.load.i.i, -2
  store i8 %bf.clear.i.i, ptr %m_kind.i.i, align 4
  %cmp30 = icmp ult i32 %sbits, 24
  br i1 %cmp30, label %if.then31, label %if.else35

if.then31:                                        ; preds = %if.end29
  %3 = load ptr, ptr %m_mpz_manager, align 8
  %sub34 = sub nuw nsw i32 24, %sbits
  tail call void @_ZN11mpz_managerILb0EE13machine_div2kER3mpzj(ptr noundef nonnull align 8 dereferenceable(600) %3, ptr noundef nonnull align 8 dereferenceable(16) %significand, i32 noundef %sub34)
  br label %if.end42

if.else35:                                        ; preds = %if.end29
  %cmp36.not = icmp eq i32 %sbits, 24
  br i1 %cmp36.not, label %if.end42, label %if.then37

if.then37:                                        ; preds = %if.else35
  %4 = load ptr, ptr %m_mpz_manager, align 8
  %sub40 = add i32 %sbits, -24
  tail call void @_ZN11mpz_managerILb0EE5mul2kER3mpzj(ptr noundef nonnull align 8 dereferenceable(600) %4, ptr noundef nonnull align 8 dereferenceable(16) %significand, i32 noundef %sub40)
  br label %if.end42

if.end42:                                         ; preds = %if.else35, %if.then37, %if.then31
  ret void
}